; Function Attrs: mustprogress uwtable
define void @_ZN9grpc_core10Subchannel21ThrottleKeepaliveTimeEi(ptr noundef nonnull align 8 dereferenceable(928) %this, i32 noundef %new_keepalive_time) local_unnamed_addr #3 align 2 personality ptr @__gxx_personality_v0 {
entry:
  %ref.tmp = alloca %"class.std::__cxx11::basic_string", align 8
  %ref.tmp8 = alloca %"class.grpc_core::ChannelArgs", align 8
  %mu_ = getelementptr inbounds i8, ptr %this, i64 400
  tail call void @_ZN4absl12lts_202308025Mutex4LockEv(ptr noundef nonnull align 8 dereferenceable(8) %mu_)
  %keepalive_time_ = getelementptr inbounds i8, ptr %this, i64 856
  %0 = load i32, ptr %keepalive_time_, align 8
  %cmp = icmp slt i32 %0, %new_keepalive_time
  br i1 %cmp, label %if.then, label %if.end12

if.then:                                          ; preds = %entry
  store i32 %new_keepalive_time, ptr %keepalive_time_, align 8
  %1 = load atomic i8, ptr getelementptr inbounds (%"class.grpc_core::TraceFlag", ptr @_ZN9grpc_core21grpc_trace_subchannelE, i64 0, i32 2, i32 0, i32 0) monotonic, align 8
  %2 = and i8 %1, 1
  %tobool.i.i.i.not = icmp eq i8 %2, 0
  br i1 %tobool.i.i.i.not, label %if.end, label %if.then3

if.then3:                                         ; preds = %if.then
  %key_ = getelementptr inbounds i8, ptr %this, i64 24
  invoke void @_ZNK9grpc_core13SubchannelKey8ToStringB5cxx11Ev(ptr nonnull sret(%"class.std::__cxx11::basic_string") align 8 %ref.tmp, ptr noundef nonnull align 8 dereferenceable(144) %key_)
          to label %invoke.cont4 unwind label %lpad

invoke.cont4:                                     ; preds = %if.then3
  %call5 = call noundef ptr @_ZNKSt7__cxx1112basic_stringIcSt11char_traitsIcESaIcEE5c_strEv(ptr noundef nonnull align 8 dereferenceable(32) %ref.tmp) #26
  invoke void (ptr, i32, i32, ptr, ...) @gpr_log(ptr noundef nonnull @.str.3, i32 noundef 545, i32 noundef 1, ptr noundef nonnull @.str.17, ptr noundef nonnull %this, ptr noundef %call5, i32 noundef %new_keepalive_time)
          to label %invoke.cont7 unwind label %lpad6

invoke.cont7:                                     ; preds = %invoke.cont4
  call void @_ZNSt7__cxx1112basic_stringIcSt11char_traitsIcESaIcEED1Ev(ptr noundef nonnull align 8 dereferenceable(32) %ref.tmp) #26
  br label %if.end

lpad:                                             ; preds = %if.end, %if.then3
  %3 = landingpad { ptr, i32 }
          cleanup
  br label %ehcleanup

lpad6:                                            ; preds = %invoke.cont4
  %4 = landingpad { ptr, i32 }
          cleanup
  call void @_ZNSt7__cxx1112basic_stringIcSt11char_traitsIcESaIcEED1Ev(ptr noundef nonnull align 8 dereferenceable(32) %ref.tmp) #26
  br label %ehcleanup

if.end:                                           ; preds = %invoke.cont7, %if.then
  %args_ = getelementptr inbounds i8, ptr %this, i64 304
  invoke void @_ZNK9grpc_core11ChannelArgs3SetESt17basic_string_viewIcSt11char_traitsIcEEi(ptr nonnull sret(%"class.grpc_core::ChannelArgs") align 8 %ref.tmp8, ptr noundef nonnull align 8 dereferenceable(8) %args_, i64 22, ptr nonnull @.str.18, i32 noundef %new_keepalive_time)
          to label %invoke.cont9 unwind label %lpad

invoke.cont9:                                     ; preds = %if.end
  %call11 = call noundef nonnull align 8 dereferenceable(8) ptr @_ZN9grpc_core11ChannelArgsaSEOS0_(ptr noundef nonnull align 8 dereferenceable(8) %args_, ptr noundef nonnull align 8 dereferenceable(8) %ref.tmp8) #26
  call void @_ZN9grpc_core11ChannelArgsD1Ev(ptr noundef nonnull align 8 dereferenceable(8) %ref.tmp8) #26
  br label %if.end12

if.end12:                                         ; preds = %invoke.cont9, %entry
  invoke void @_ZN4absl12lts_202308025Mutex6UnlockEv(ptr noundef nonnull align 8 dereferenceable(8) %mu_)
          to label %_ZN4absl12lts_202308029MutexLockD2Ev.exit unwind label %terminate.lpad.i

terminate.lpad.i:                                 ; preds = %if.end12
  %5 = landingpad { ptr, i32 }
          catch ptr null
  %6 = extractvalue { ptr, i32 } %5, 0
  call void @__clang_call_terminate(ptr %6) #27
  unreachable

_ZN4absl12lts_202308029MutexLockD2Ev.exit:        ; preds = %if.end12
  ret void

ehcleanup:                                        ; preds = %lpad6, %lpad
  %.pn = phi { ptr, i32 } [ %3, %lpad ], [ %4, %lpad6 ]
  invoke void @_ZN4absl12lts_202308025Mutex6UnlockEv(ptr noundef nonnull align 8 dereferenceable(8) %mu_)
          to label %_ZN4absl12lts_202308029MutexLockD2Ev.exit6 unwind label %terminate.lpad.i5

terminate.lpad.i5:                                ; preds = %ehcleanup
  %7 = landingpad { ptr, i32 }
          catch ptr null
  %8 = extractvalue { ptr, i32 } %7, 0
  call void @__clang_call_terminate(ptr %8) #27
  unreachable

_ZN4absl12lts_202308029MutexLockD2Ev.exit6:       ; preds = %ehcleanup
  resume { ptr, i32 } %.pn
}